target datalayout = "e-m:e-p270:32:32-p271:32:32-p272:64:64-i64:64-i128:128-f80:128-n8:16:32:64-S128"
target triple = "x86_64-pc-linux-gnu"

%class.MemRegion = type { ptr, i64 }
%class.SerialHeap = type { %class.CollectedHeap, ptr, ptr, ptr, ptr, ptr, ptr, ptr, ptr, ptr, ptr, ptr }
%class.CollectedHeap = type { ptr, ptr, i64, i64, %class.SoftRefPolicy, %class.MemRegion, i8, i64, i32, i32, i32, i32, ptr, ptr }
%class.SoftRefPolicy = type { i8, i8 }

; Function Attrs: mustprogress nounwind uwtable
define hidden void @_ZN10SerialHeap11gc_prologueEb(ptr noundef nonnull align 8 dereferenceable(192) %0, i1 noundef zeroext %1) unnamed_addr #1 align 2 {
  %3 = alloca ptr, align 8
  %4 = alloca i8, align 1
  store ptr %0, ptr %3, align 8
  %5 = zext i1 %1 to i8
  store i8 %5, ptr %4, align 1
  %6 = load ptr, ptr %3, align 8
  %7 = load ptr, ptr %6, align 8
  %8 = getelementptr inbounds ptr, ptr %7, i64 19
  %9 = load ptr, ptr %8, align 8
  call void %9(ptr noundef nonnull align 8 dereferenceable(104) %6, i1 noundef zeroext true)
  %10 = getelementptr inbounds %class.SerialHeap, ptr %6, i32 0, i32 2
  %11 = load ptr, ptr %10, align 8
  call void @_ZN17TenuredGeneration11gc_prologueEv(ptr noundef nonnull align 8 dereferenceable(248) %11)
  ret void
}