; Function Attrs: mustprogress nounwind uwtable
define hidden void @_ZN10SerialHeap11gc_prologueEb(ptr noundef nonnull align 8 dereferenceable(192) %0, i1 zeroext %1) unnamed_addr #0 align 2 {
  %3 = load ptr, ptr %0, align 8
  %4 = getelementptr inbounds i8, ptr %3, i64 152
  %5 = load ptr, ptr %4, align 8
  tail call void %5(ptr noundef nonnull align 8 dereferenceable(104) %0, i1 noundef zeroext true) #16
  %6 = getelementptr inbounds i8, ptr %0, i64 112
  %7 = load ptr, ptr %6, align 8
  tail call void @_ZN17TenuredGeneration11gc_prologueEv(ptr noundef nonnull align 8 dereferenceable(248) %7) #16
  ret void
}